target datalayout = "e-m:e-p270:32:32-p271:32:32-p272:64:64-i64:64-i128:128-f80:128-n8:16:32:64-S128"
target triple = "x86_64-pc-linux-gnu"

%struct.AVFormatContext = type { ptr, ptr, ptr, ptr, ptr, i32, i32, ptr, i32, ptr, i32, ptr, ptr, i64, i64, i64, i32, i32, i32, i64, i64, ptr, i32, i32, ptr, i32, i32, i32, i32, ptr, i64, i32, i32, %struct.AVIOInterruptCB, i32, i32, i32, i32, i64, i32, i32, i32, i32, i32, i32, i32, i32, i32, i32, i32, i32, i64, i32, i32, i32, i32, i32, ptr, ptr, ptr, ptr, i32, ptr, ptr, ptr, ptr, i32, ptr, ptr, i64, ptr, ptr, ptr, i64 }
%struct.AVIOInterruptCB = type { ptr, ptr }
%struct.AVPacket = type { ptr, i64, i64, ptr, i32, i32, i32, ptr, i32, i64, i64, ptr, ptr, %struct.AVRational }
%struct.AVRational = type { i32, i32 }
%struct.IEC61937Context = type { ptr, i32, i32, i32, ptr, i32, ptr, i32, i32, i32, [2 x ptr], i32, i32, i32, i32, i32, i16, i32, i32, i32, i32, i32, ptr }

@.str.23 = private unnamed_addr constant [23 x i8] c"Wrong AAC file format\0A\00", align 1
@.str.24 = private unnamed_addr constant [39 x i8] c"%u samples in AAC frame not supported\0A\00", align 1

; Function Attrs: nounwind uwtable
define internal i32 @spdif_header_aac(ptr noundef %0, ptr noundef %1) #0 {
  %3 = alloca i32, align 4
  %4 = alloca ptr, align 8
  %5 = alloca ptr, align 8
  %6 = alloca ptr, align 8
  %7 = alloca i32, align 4
  %8 = alloca i8, align 1
  %9 = alloca i32, align 4
  %10 = alloca i32, align 4
  store ptr %0, ptr %4, align 8, !tbaa !4
  store ptr %1, ptr %5, align 8, !tbaa !48
  call void @llvm.lifetime.start.p0(i64 8, ptr %6) #7
  %11 = load ptr, ptr %4, align 8, !tbaa !4
  %12 = getelementptr inbounds nuw %struct.AVFormatContext, ptr %11, i32 0, i32 3
  %13 = load ptr, ptr %12, align 8, !tbaa !9
  store ptr %13, ptr %6, align 8, !tbaa !26
  call void @llvm.lifetime.start.p0(i64 4, ptr %7) #7
  call void @llvm.lifetime.start.p0(i64 1, ptr %8) #7
  call void @llvm.lifetime.start.p0(i64 4, ptr %9) #7
  %14 = load ptr, ptr %5, align 8, !tbaa !48
  %15 = getelementptr inbounds nuw %struct.AVPacket, ptr %14, i32 0, i32 3
  %16 = load ptr, ptr %15, align 8, !tbaa !50
  %17 = call i32 @av_adts_header_parse(ptr noundef %16, ptr noundef %7, ptr noundef %8)
  store i32 %17, ptr %9, align 4, !tbaa !44
  %18 = load i32, ptr %9, align 4, !tbaa !44
  %19 = icmp slt i32 %18, 0
  br i1 %19, label %20, label %23

20:                                               ; preds = %2
  %21 = load ptr, ptr %4, align 8, !tbaa !4
  call void (ptr, i32, ptr, ...) @av_log(ptr noundef %21, i32 noundef 16, ptr noundef @.str.23)
  %22 = load i32, ptr %9, align 4, !tbaa !44
  store i32 %22, ptr %3, align 4
  store i32 1, ptr %10, align 4
  br label %43

23:                                               ; preds = %2
  %24 = load i32, ptr %7, align 4, !tbaa !44
  %25 = shl i32 %24, 2
  %26 = load ptr, ptr %6, align 8, !tbaa !26
  %27 = getelementptr inbounds nuw %struct.IEC61937Context, ptr %26, i32 0, i32 3
  store i32 %25, ptr %27, align 8, !tbaa !57
  %28 = load i8, ptr %8, align 1, !tbaa !62
  %29 = zext i8 %28 to i32
  switch i32 %29, label %39 [
    i32 1, label %30
    i32 2, label %33
    i32 4, label %36
  ]

30:                                               ; preds = %23
  %31 = load ptr, ptr %6, align 8, !tbaa !26
  %32 = getelementptr inbounds nuw %struct.IEC61937Context, ptr %31, i32 0, i32 1
  store i32 7, ptr %32, align 8, !tbaa !59
  br label %42

33:                                               ; preds = %23
  %34 = load ptr, ptr %6, align 8, !tbaa !26
  %35 = getelementptr inbounds nuw %struct.IEC61937Context, ptr %34, i32 0, i32 1
  store i32 19, ptr %35, align 8, !tbaa !59
  br label %42

36:                                               ; preds = %23
  %37 = load ptr, ptr %6, align 8, !tbaa !26
  %38 = getelementptr inbounds nuw %struct.IEC61937Context, ptr %37, i32 0, i32 1
  store i32 51, ptr %38, align 8, !tbaa !59
  br label %42

39:                                               ; preds = %23
  %40 = load ptr, ptr %4, align 8, !tbaa !4
  %41 = load i32, ptr %7, align 4, !tbaa !44
  call void (ptr, i32, ptr, ...) @av_log(ptr noundef %40, i32 noundef 16, ptr noundef @.str.24, i32 noundef %41)
  store i32 -22, ptr %3, align 4
  store i32 1, ptr %10, align 4
  br label %43

42:                                               ; preds = %36, %33, %30
  store i32 0, ptr %3, align 4
  store i32 1, ptr %10, align 4
  br label %43

43:                                               ; preds = %42, %39, %20
  call void @llvm.lifetime.end.p0(i64 4, ptr %9) #7
  call void @llvm.lifetime.end.p0(i64 1, ptr %8) #7
  call void @llvm.lifetime.end.p0(i64 4, ptr %7) #7
  call void @llvm.lifetime.end.p0(i64 8, ptr %6) #7
  %44 = load i32, ptr %3, align 4
  ret i32 %44
}