; Function Attrs: nounwind uwtable
define internal range(i32 -2147483648, 1) i32 @spdif_header_aac(ptr noundef %0, ptr noundef readonly captures(none) %1) #0 {
  %3 = alloca i32, align 4
  %4 = alloca i8, align 1
  %5 = getelementptr inbounds nuw i8, ptr %0, i64 24
  %6 = load ptr, ptr %5, align 8, !tbaa !4
  call void @llvm.lifetime.start.p0(i64 4, ptr nonnull %3) #7
  call void @llvm.lifetime.start.p0(i64 1, ptr nonnull %4) #7
  %7 = getelementptr inbounds nuw i8, ptr %1, i64 24
  %8 = load ptr, ptr %7, align 8, !tbaa !41
  %9 = call i32 @av_adts_header_parse(ptr noundef %8, ptr noundef nonnull %3, ptr noundef nonnull %4) #7
  %10 = icmp slt i32 %9, 0
  br i1 %10, label %11, label %12

11:                                               ; preds = %2
  call void (ptr, i32, ptr, ...) @av_log(ptr noundef nonnull %0, i32 noundef 16, ptr noundef nonnull @.str.23) #7
  br label %24

12:                                               ; preds = %2
  %13 = load i32, ptr %3, align 4, !tbaa !56
  %14 = shl i32 %13, 2
  %15 = getelementptr inbounds nuw i8, ptr %6, i64 16
  store i32 %14, ptr %15, align 8, !tbaa !48
  %16 = load i8, ptr %4, align 1, !tbaa !53
  switch i8 %16, label %23 [
    i8 1, label %17
    i8 2, label %19
    i8 4, label %21
  ]

17:                                               ; preds = %12
  %18 = getelementptr inbounds nuw i8, ptr %6, i64 8
  store i32 7, ptr %18, align 8, !tbaa !51
  br label %24

19:                                               ; preds = %12
  %20 = getelementptr inbounds nuw i8, ptr %6, i64 8
  store i32 19, ptr %20, align 8, !tbaa !51
  br label %24

21:                                               ; preds = %12
  %22 = getelementptr inbounds nuw i8, ptr %6, i64 8
  store i32 51, ptr %22, align 8, !tbaa !51
  br label %24

23:                                               ; preds = %12
  call void (ptr, i32, ptr, ...) @av_log(ptr noundef nonnull %0, i32 noundef 16, ptr noundef nonnull @.str.24, i32 noundef %13) #7
  br label %24

24:                                               ; preds = %17, %19, %21, %23, %11
  %.0 = phi i32 [ %9, %11 ], [ -22, %23 ], [ 0, %21 ], [ 0, %19 ], [ 0, %17 ]
  call void @llvm.lifetime.end.p0(i64 1, ptr nonnull %4) #7
  call void @llvm.lifetime.end.p0(i64 4, ptr nonnull %3) #7
  ret i32 %.0
}